; Function Attrs: nounwind uwtable
define internal ptr @builtin_anext(ptr readnone captures(none) %0, ptr noundef readonly captures(none) %1, i64 noundef %2) #0 {
  %4 = add i64 %2, -1
  %or.cond = icmp ult i64 %4, 2
  br i1 %or.cond, label %7, label %5

5:                                                ; preds = %3
  %6 = tail call i32 @_PyArg_CheckPositional(ptr noundef nonnull @.str.84, i64 noundef %2, i64 noundef 1, i64 noundef 2) #9
  %.not = icmp eq i32 %6, 0
  br i1 %.not, label %builtin_anext_impl.exit, label %7

7:                                                ; preds = %3, %5
  %8 = load ptr, ptr %1, align 8, !tbaa !39
  %9 = icmp slt i64 %2, 2
  br i1 %9, label %13, label %10

10:                                               ; preds = %7
  %11 = getelementptr i8, ptr %1, i64 8
  %12 = load ptr, ptr %11, align 8, !tbaa !39
  br label %13

13:                                               ; preds = %7, %10
  %.0 = phi ptr [ null, %7 ], [ %12, %10 ]
  %14 = getelementptr i8, ptr %8, i64 8
  %.val.i = load ptr, ptr %14, align 8, !tbaa !20
  %15 = getelementptr inbounds nuw i8, ptr %.val.i, i64 80
  %16 = load ptr, ptr %15, align 8, !tbaa !157
  %17 = icmp eq ptr %16, null
  br i1 %17, label %22, label %18

18:                                               ; preds = %13
  %19 = getelementptr inbounds nuw i8, ptr %16, i64 16
  %20 = load ptr, ptr %19, align 8, !tbaa !158
  %21 = icmp eq ptr %20, null
  br i1 %21, label %22, label %27

22:                                               ; preds = %18, %13
  %23 = load ptr, ptr @PyExc_TypeError, align 8, !tbaa !39
  %24 = getelementptr inbounds nuw i8, ptr %.val.i, i64 24
  %25 = load ptr, ptr %24, align 8, !tbaa !144
  %26 = tail call ptr (ptr, ptr, ...) @PyErr_Format(ptr noundef %23, ptr noundef nonnull @.str.161, ptr noundef %25) #9
  br label %builtin_anext_impl.exit

27:                                               ; preds = %18
  %28 = tail call ptr %20(ptr noundef nonnull %8) #9
  %29 = icmp eq ptr %.0, null
  br i1 %29, label %builtin_anext_impl.exit, label %30

30:                                               ; preds = %27
  %31 = tail call ptr @PyAnextAwaitable_New(ptr noundef %28, ptr noundef nonnull %.0) #9
  %32 = load i32, ptr %28, align 8, !tbaa !33
  %.not.i.i = icmp sgt i32 %32, -1
  br i1 %.not.i.i, label %33, label %builtin_anext_impl.exit

33:                                               ; preds = %30
  %34 = add nsw i32 %32, -1
  store i32 %34, ptr %28, align 8, !tbaa !33
  %35 = icmp eq i32 %34, 0
  br i1 %35, label %36, label %builtin_anext_impl.exit

36:                                               ; preds = %33
  tail call void @_Py_Dealloc(ptr noundef nonnull %28) #9
  br label %builtin_anext_impl.exit

builtin_anext_impl.exit:                          ; preds = %36, %33, %30, %27, %22, %5
  %.010 = phi ptr [ null, %5 ], [ null, %22 ], [ %28, %27 ], [ %31, %30 ], [ %31, %33 ], [ %31, %36 ]
  ret ptr %.010
}